; Function Attrs: mustprogress nounwind uwtable
define hidden void @_ZN14PhaseIdealLoop29eliminate_hoisted_range_checkEP10IfTrueNodeS1_(ptr noundef nonnull align 8 dereferenceable(237) %0, ptr noundef %1, ptr noundef %2) local_unnamed_addr #0 align 2 {
  %4 = getelementptr inbounds i8, ptr %0, i64 56
  %5 = load ptr, ptr %4, align 8
  %6 = getelementptr inbounds i8, ptr %1, i64 8
  %7 = load ptr, ptr %6, align 8
  %8 = load ptr, ptr %7, align 8
  %9 = tail call noundef ptr @_ZN11PhaseValues6intconEi(ptr noundef nonnull align 8 dereferenceable(2400) %5, i32 noundef 1) #8
  %10 = getelementptr inbounds i8, ptr %5, i64 32
  %11 = load ptr, ptr %10, align 8
  %12 = tail call noundef zeroext i1 @_ZN8NodeHash11hash_deleteEPK4Node(ptr noundef nonnull align 8 dereferenceable(40) %11, ptr noundef %8) #8
  %13 = getelementptr inbounds i8, ptr %5, i64 2408
  %14 = load ptr, ptr %13, align 8
  %15 = getelementptr inbounds i8, ptr %14, i64 32
  %16 = getelementptr inbounds i8, ptr %8, i64 40
  %17 = load i32, ptr %16, align 8
  %18 = lshr i32 %17, 5
  %19 = load i32, ptr %15, align 8
  %.not.i.i.i.i = icmp ult i32 %18, %19
  br i1 %.not.i.i.i.i, label %_ZN9VectorSet8test_setEj.exit.i.i.i, label %20

20:                                               ; preds = %3
  tail call void @_ZN9VectorSet4growEj(ptr noundef nonnull align 8 dereferenceable(32) %15, i32 noundef %18) #8
  br label %_ZN9VectorSet8test_setEj.exit.i.i.i

_ZN9VectorSet8test_setEj.exit.i.i.i:              ; preds = %20, %3
  %21 = and i32 %17, 31
  %22 = shl nuw i32 1, %21
  %23 = getelementptr inbounds i8, ptr %14, i64 40
  %24 = load ptr, ptr %23, align 8
  %25 = zext nneg i32 %18 to i64
  %26 = getelementptr inbounds i32, ptr %24, i64 %25
  %27 = load i32, ptr %26, align 4
  %28 = or i32 %27, %22
  store i32 %28, ptr %26, align 4
  %29 = and i32 %27, %22
  %.not.i.i.i = icmp eq i32 %29, 0
  br i1 %.not.i.i.i, label %30, label %_ZN12PhaseIterGVN16replace_input_ofEP4NodejS1_.exit

30:                                               ; preds = %_ZN9VectorSet8test_setEj.exit.i.i.i
  %31 = getelementptr inbounds i8, ptr %14, i64 24
  %32 = load i32, ptr %31, align 8
  %33 = add i32 %32, 1
  store i32 %33, ptr %31, align 8
  %34 = getelementptr inbounds i8, ptr %14, i64 8
  %35 = load i32, ptr %34, align 8
  %.not.i.i.i.i.i = icmp ugt i32 %35, %32
  br i1 %.not.i.i.i.i.i, label %_ZN9Node_List4pushEP4Node.exit.i.i.i, label %36

36:                                               ; preds = %30
  tail call void @_ZN10Node_Array4growEj(ptr noundef nonnull align 8 dereferenceable(24) %14, i32 noundef %32) #8
  br label %_ZN9Node_List4pushEP4Node.exit.i.i.i

_ZN9Node_List4pushEP4Node.exit.i.i.i:             ; preds = %36, %30
  %37 = getelementptr inbounds i8, ptr %14, i64 16
  %38 = load ptr, ptr %37, align 8
  %39 = zext i32 %32 to i64
  %40 = getelementptr inbounds ptr, ptr %38, i64 %39
  store ptr %8, ptr %40, align 8
  br label %_ZN12PhaseIterGVN16replace_input_ofEP4NodejS1_.exit

_ZN12PhaseIterGVN16replace_input_ofEP4NodejS1_.exit: ; preds = %_ZN9VectorSet8test_setEj.exit.i.i.i, %_ZN9Node_List4pushEP4Node.exit.i.i.i
  tail call void @_ZN4Node9set_req_XEjPS_P12PhaseIterGVN(ptr noundef nonnull align 8 dereferenceable(52) %8, i32 noundef 1, ptr noundef %9, ptr noundef nonnull %5) #8
  tail call void @_ZN14PhaseIdealLoop32rewire_safe_outputs_to_dominatorEP4NodeS1_b(ptr noundef nonnull align 8 dereferenceable(237) %0, ptr noundef nonnull %1, ptr noundef %2, i1 noundef zeroext true) #8
  ret void
}